(dp0
cnumpy.core.multiarray
scalar
p1
(cnumpy
dtype
p2
(S'i8'
p3
I0
I1
tp4
Rp5
(I3
S'<'
p6
NNNI-1
I-1
I0
tp7
bS'C\r\x00\x00\x00\x00\x00\x00'
p8
tp9
Rp10
(dp11
S't_stop_ABORT'
p12
F-1.0
sS't_stop_UNSTABLE'
p13
F-1.0
sS't_startfill'
p14
g1
(g2
(S'f8'
p15
I0
I1
tp16
Rp17
(I3
S'<'
p18
NNNI-1
I-1
I0
tp19
bS'\x00\x00\xc0\xc9\xa20\xd4A'
p20
tp21
Rp22
sS't_start_INJSTUP'
p23
F-1.0
sS't_start_BEAMDUMP'
p24
F-1.0
sS't_start_ABORT'
p25
F-1.0
sS't_stop_RAMP'
p26
F-1.0
sS't_stop_BEAMDUMP'
p27
F-1.0
sS't_stop_INJDUMP'
p28
F-1.0
sS't_stop_WBDUMP'
p29
F-1.0
sS't_stop_NOMODE'
p30
F-1.0
sS't_start_INJPROT'
p31
g1
(g5
S'\xde\xb4\xc2P\x00\x00\x00\x00'
p32
tp33
Rp34
sS't_stop_CYCLING'
p35
g1
(g5
S'O\xad\xc2P\x00\x00\x00\x00'
p36
tp37
Rp38
sS't_start_PRERAMP'
p39
F-1.0
sS't_stop_SQUEEZE'
p40
F-1.0
sS't_start_NOMODE'
p41
F-1.0
sS't_start_SQUEEZE'
p42
F-1.0
sS't_stop_SETUP'
p43
g1
(g5
S'\xde\xb4\xc2P\x00\x00\x00\x00'
p44
tp45
Rp46
sS't_start_ADJUST'
p47
F-1.0
sS't_start_STABLE'
p48
F-1.0
sS't_endfill'
p49
g1
(g17
S'\x00\x00\xc0|\xb80\xd4A'
p50
tp51
Rp52
sS't_stop_INJSTUP'
p53
F-1.0
sS't_stop_RECOVERY'
p54
F-1.0
sS't_start_INJDUMP'
p55
F-1.0
sS't_start_NOBEAM'
p56
F-1.0
sS't_start_RAMP'
p57
F-1.0
sS't_stop_INJPHYS'
p58
g1
(g5
S'\xcf\x8e\xc2P\x00\x00\x00\x00'
p59
tp60
Rp61
sS't_stop_INJPROT'
p62
g1
(g5
S'$\xb9\xc2P\x00\x00\x00\x00'
p63
tp64
Rp65
sS't_start_CIRCDUMP'
p66
F-1.0
sS't_start_UNSTABLE'
p67
F-1.0
sS't_stop_STABLE'
p68
F-1.0
sS't_stop_FLATTOP'
p69
F-1.0
sS't_start_SETUP'
p70
g1
(g5
S'O\xad\xc2P\x00\x00\x00\x00'
p71
tp72
Rp73
sS't_start_WBDUMP'
p74
F-1.0
sS't_start_RAMPDOWN'
p75
F-1.0
sS't_stop_ADJUST'
p76
F-1.0
sS't_start_FLATTOP'
p77
F-1.0
sS't_start_CYCLING'
p78
g1
(g5
S'\xcf\x8e\xc2P\x00\x00\x00\x00'
p79
tp80
Rp81
sS't_stop_PRERAMP'
p82
F-1.0
sS't_stop_RAMPDOWN'
p83
F-1.0
sS't_start_RECOVERY'
p84
F-1.0
sS't_stop_CIRCDUMP'
p85
F-1.0
sS't_start_INJPHYS'
p86
g1
(g5
S'$\xb9\xc2P\x00\x00\x00\x00'
p87
tp88
Rp89
sS't_stop_NOBEAM'
p90
F-1.0
ssg1
(g5
S'D\r\x00\x00\x00\x00\x00\x00'
p91
tp92
Rp93
(dp94
S't_stop_ABORT'
p95
F-1.0
sS't_stop_UNSTABLE'
p96
F-1.0
sg14
g1
(g17
S'\x00\x00\xc0|\xb80\xd4A'
p97
tp98
Rp99
sS't_start_INJSTUP'
p100
F-1.0
sS't_start_BEAMDUMP'
p101
F-1.0
sS't_start_ABORT'
p102
F-1.0
sS't_stop_RAMP'
p103
F-1.0
sS't_stop_BEAMDUMP'
p104
F-1.0
sS't_stop_INJDUMP'
p105
F-1.0
sS't_stop_WBDUMP'
p106
F-1.0
sS't_stop_NOMODE'
p107
F-1.0
sS't_start_INJPROT'
p108
g1
(g5
S'\x11\n\xc3P\x00\x00\x00\x00'
p109
tp110
Rp111
sS't_stop_CYCLING'
p112
g1
(g5
S'u\x08\xc3P\x00\x00\x00\x00'
p113
tp114
Rp115
sS't_start_PRERAMP'
p116
F-1.0
sS't_stop_SQUEEZE'
p117
F-1.0
sS't_start_NOMODE'
p118
F-1.0
sS't_start_SQUEEZE'
p119
F-1.0
sS't_stop_SETUP'
p120
g1
(g5
S'B\xf8\xc2P\x00\x00\x00\x00'
p121
tp122
Rp123
sS't_start_ADJUST'
p124
F-1.0
sS't_start_STABLE'
p125
F-1.0
sg49
g1
(g17
S'\x00\x00\x80{\xcc0\xd4A'
p126
tp127
Rp128
sS't_stop_INJSTUP'
p129
F-1.0
sS't_stop_RECOVERY'
p130
F-1.0
sS't_start_INJDUMP'
p131
F-1.0
sS't_start_NOBEAM'
p132
F-1.0
sS't_start_RAMP'
p133
F-1.0
sS't_stop_INJPHYS'
p134
g1
(g5
S'\xb7\xe2\xc2P\x00\x00\x00\x00'
p135
tp136
Rp137
sS't_stop_INJPROT'
p138
g1
(g5
S'\xb9\x0e\xc3P\x00\x00\x00\x00'
p139
tp140
Rp141
sS't_start_CIRCDUMP'
p142
F-1.0
sS't_start_UNSTABLE'
p143
F-1.0
sS't_stop_STABLE'
p144
F-1.0
sS't_stop_FLATTOP'
p145
F-1.0
sS't_start_SETUP'
p146
g1
(g5
S'\xb7\xe2\xc2P\x00\x00\x00\x00'
p147
tp148
Rp149
sS't_start_WBDUMP'
p150
F-1.0
sS't_start_RAMPDOWN'
p151
F-1.0
sS't_stop_ADJUST'
p152
F-1.0
sS't_start_FLATTOP'
p153
F-1.0
sS't_start_CYCLING'
p154
g1
(g5
S'B\xf8\xc2P\x00\x00\x00\x00'
p155
tp156
Rp157
sS't_stop_PRERAMP'
p158
F-1.0
sS't_stop_RAMPDOWN'
p159
F-1.0
sS't_start_RECOVERY'
p160
F-1.0
sS't_stop_CIRCDUMP'
p161
F-1.0
sS't_start_INJPHYS'
p162
g1
(g5
S'\xb9\x0e\xc3P\x00\x00\x00\x00'
p163
tp164
Rp165
sS't_stop_NOBEAM'
p166
F-1.0
ssg1
(g5
S'E\r\x00\x00\x00\x00\x00\x00'
p167
tp168
Rp169
(dp170
S't_stop_ABORT'
p171
F-1.0
sS't_stop_UNSTABLE'
p172
F-1.0
sg14
g1
(g17
S'\x00\x00\x80{\xcc0\xd4A'
p173
tp174
Rp175
sS't_start_INJSTUP'
p176
F-1.0
sS't_start_BEAMDUMP'
p177
F-1.0
sS't_start_ABORT'
p178
F-1.0
sS't_stop_RAMP'
p179
F-1.0
sS't_stop_BEAMDUMP'
p180
F-1.0
sS't_stop_INJDUMP'
p181
F-1.0
sS't_stop_WBDUMP'
p182
F-1.0
sS't_stop_NOMODE'
p183
F-1.0
sS't_start_INJPROT'
p184
F-1.0
sS't_stop_CYCLING'
p185
F-1.0
sS't_start_PRERAMP'
p186
F-1.0
sS't_stop_SQUEEZE'
p187
F-1.0
sS't_start_NOMODE'
p188
F-1.0
sS't_start_SQUEEZE'
p189
F-1.0
sS't_stop_SETUP'
p190
F-1.0
sS't_start_ADJUST'
p191
F-1.0
sS't_start_STABLE'
p192
F-1.0
sg49
g1
(g17
S'\x00\x00\x00\x11\xe30\xd4A'
p193
tp194
Rp195
sS't_stop_INJSTUP'
p196
F-1.0
sS't_stop_RECOVERY'
p197
F-1.0
sS't_start_INJDUMP'
p198
F-1.0
sS't_start_NOBEAM'
p199
F-1.0
sS't_start_RAMP'
p200
F-1.0
sS't_stop_INJPHYS'
p201
g1
(g5
S'\x801\xc3P\x00\x00\x00\x00'
p202
tp203
Rp204
sS't_stop_INJPROT'
p205
F-1.0
sS't_start_CIRCDUMP'
p206
F-1.0
sS't_start_UNSTABLE'
p207
F-1.0
sS't_stop_STABLE'
p208
F-1.0
sS't_stop_FLATTOP'
p209
F-1.0
sS't_start_SETUP'
p210
F-1.0
sS't_start_WBDUMP'
p211
F-1.0
sS't_start_RAMPDOWN'
p212
F-1.0
sS't_stop_ADJUST'
p213
F-1.0
sS't_start_FLATTOP'
p214
F-1.0
sS't_start_CYCLING'
p215
F-1.0
sS't_stop_PRERAMP'
p216
F-1.0
sS't_stop_RAMPDOWN'
p217
F-1.0
sS't_start_RECOVERY'
p218
F-1.0
sS't_stop_CIRCDUMP'
p219
F-1.0
sS't_start_INJPHYS'
p220
g1
(g5
S'\xfc6\xc3P\x00\x00\x00\x00'
p221
tp222
Rp223
sS't_stop_NOBEAM'
p224
F-1.0
ss.