(dp0
cnumpy.core.multiarray
scalar
p1
(cnumpy
dtype
p2
(S'i8'
p3
I0
I1
tp4
Rp5
(I3
S'<'
p6
NNNI-1
I-1
I0
tp7
bS'\xec\x0e\x00\x00\x00\x00\x00\x00'
p8
tp9
Rp10
(dp11
S't_stop_ABORT'
p12
F-1.0
sS't_stop_UNSTABLE'
p13
F-1.0
sS't_startfill'
p14
g1
(g2
(S'f8'
p15
I0
I1
tp16
Rp17
(I3
S'<'
p18
NNNI-1
I-1
I0
tp19
bS'\x00\x00\x00|\xc6[\xd5A'
p20
tp21
Rp22
sS't_start_INJSTUP'
p23
F-1.0
sS't_start_BEAMDUMP'
p24
g1
(g5
S'\x08\x92oU\x00\x00\x00\x00'
p25
tp26
Rp27
sS't_start_ABORT'
p28
F-1.0
sS't_stop_RAMP'
p29
g1
(g5
S'\xc49oU\x00\x00\x00\x00'
p30
tp31
Rp32
sS't_stop_BEAMDUMP'
p33
g1
(g5
S'\xb7\x92oU\x00\x00\x00\x00'
p34
tp35
Rp36
sS't_stop_INJDUMP'
p37
F-1.0
sS't_stop_WBDUMP'
p38
F-1.0
sS't_stop_NOMODE'
p39
F-1.0
sS't_start_INJPROT'
p40
g1
(g5
S'\xad"oU\x00\x00\x00\x00'
p41
tp42
Rp43
sS't_stop_CYCLING'
p44
F-1.0
sS't_start_PRERAMP'
p45
g1
(g5
S'=4oU\x00\x00\x00\x00'
p46
tp47
Rp48
sS't_stop_SQUEEZE'
p49
g1
(g5
S'ABoU\x00\x00\x00\x00'
p50
tp51
Rp52
sS't_start_NOMODE'
p53
F-1.0
sS't_start_SQUEEZE'
p54
g1
(g5
S'O:oU\x00\x00\x00\x00'
p55
tp56
Rp57
sS't_stop_SETUP'
p58
g1
(g5
S'\xe4\xacnU\x00\x00\x00\x00'
p59
tp60
Rp61
sS't_start_ADJUST'
p62
g1
(g5
S'ABoU\x00\x00\x00\x00'
p63
tp64
Rp65
sS't_start_STABLE'
p66
g1
(g5
S'\x1bHoU\x00\x00\x00\x00'
p67
tp68
Rp69
sS't_endfill'
p70
g1
(g17
S'\x00\x00\x00\x13\xe5[\xd5A'
p71
tp72
Rp73
sS't_stop_INJSTUP'
p74
F-1.0
sS't_stop_RECOVERY'
p75
F-1.0
sS't_start_INJDUMP'
p76
F-1.0
sS't_start_NOBEAM'
p77
F-1.0
sS't_start_RAMP'
p78
g1
(g5
S'\xfe4oU\x00\x00\x00\x00'
p79
tp80
Rp81
sS't_stop_INJPHYS'
p82
g1
(g5
S'=4oU\x00\x00\x00\x00'
p83
tp84
Rp85
sS't_stop_INJPROT'
p86
g1
(g5
S'\x811oU\x00\x00\x00\x00'
p87
tp88
Rp89
sS't_start_CIRCDUMP'
p90
F-1.0
sS't_start_UNSTABLE'
p91
F-1.0
sS't_stop_STABLE'
p92
g1
(g5
S'\x8e\x88oU\x00\x00\x00\x00'
p93
tp94
Rp95
sS't_stop_FLATTOP'
p96
g1
(g5
S'O:oU\x00\x00\x00\x00'
p97
tp98
Rp99
sS't_start_SETUP'
p100
g1
(g5
S'\xa7 oU\x00\x00\x00\x00'
p101
tp102
Rp103
sS't_start_WBDUMP'
p104
F-1.0
sS't_start_RAMPDOWN'
p105
g1
(g5
S'\xb7\x92oU\x00\x00\x00\x00'
p106
tp107
Rp108
sS't_stop_ADJUST'
p109
g1
(g5
S'\x1bHoU\x00\x00\x00\x00'
p110
tp111
Rp112
sS't_start_FLATTOP'
p113
g1
(g5
S'\xc49oU\x00\x00\x00\x00'
p114
tp115
Rp116
sS't_start_CYCLING'
p117
F-1.0
sS't_stop_PRERAMP'
p118
g1
(g5
S'\xfe4oU\x00\x00\x00\x00'
p119
tp120
Rp121
sS't_stop_RAMPDOWN'
p122
g1
(g5
S'6\x9foU\x00\x00\x00\x00'
p123
tp124
Rp125
sS't_start_RECOVERY'
p126
F-1.0
sS't_stop_CIRCDUMP'
p127
F-1.0
sS't_start_INJPHYS'
p128
g1
(g5
S'\x811oU\x00\x00\x00\x00'
p129
tp130
Rp131
sS't_stop_NOBEAM'
p132
F-1.0
ss.